; Function Attrs: mustprogress uwtable
define signext range(i8 0, 2) i8 @ufile_getch32_77(ptr noundef %0, ptr noundef writeonly captures(none) initializes((0, 4)) %1) local_unnamed_addr #0 {
  store i32 65535, ptr %1, align 4, !tbaa !26
  %3 = getelementptr inbounds nuw i8, ptr %0, i64 24
  %4 = load ptr, ptr %3, align 8, !tbaa !41
  %5 = getelementptr inbounds nuw i8, ptr %4, i64 2
  %6 = getelementptr inbounds nuw i8, ptr %0, i64 32
  %7 = load ptr, ptr %6, align 8, !tbaa !40
  %.not = icmp ult ptr %5, %7
  br i1 %.not, label %9, label %8

8:                                                ; preds = %2
  tail call void @_Z26ufile_fill_uchar_buffer_77P5UFILE(ptr noundef nonnull %0)
  %.pre = load ptr, ptr %3, align 8, !tbaa !41
  %.pre19 = load ptr, ptr %6, align 8, !tbaa !40
  br label %9

9:                                                ; preds = %8, %2
  %10 = phi ptr [ %.pre19, %8 ], [ %7, %2 ]
  %11 = phi ptr [ %.pre, %8 ], [ %4, %2 ]
  %12 = icmp ult ptr %11, %10
  br i1 %12, label %13, label %28

13:                                               ; preds = %9
  %14 = getelementptr inbounds nuw i8, ptr %11, i64 2
  store ptr %14, ptr %3, align 8, !tbaa !41
  %15 = load i16, ptr %11, align 2, !tbaa !38
  %16 = zext i16 %15 to i32
  store i32 %16, ptr %1, align 4, !tbaa !26
  %17 = and i32 %16, 64512
  %18 = icmp eq i32 %17, 55296
  br i1 %18, label %19, label %28

19:                                               ; preds = %13
  %20 = icmp ult ptr %14, %10
  br i1 %20, label %21, label %.sink.split

21:                                               ; preds = %19
  %22 = getelementptr inbounds nuw i8, ptr %11, i64 4
  store ptr %22, ptr %3, align 8, !tbaa !41
  %23 = load i16, ptr %14, align 2, !tbaa !38
  %24 = shl nuw nsw i32 %16, 10
  %25 = zext i16 %23 to i32
  %26 = add nsw i32 %24, -56613888
  %27 = add nuw nsw i32 %26, %25
  br label %.sink.split

.sink.split:                                      ; preds = %19, %21
  %.sink = phi i32 [ %27, %21 ], [ 65535, %19 ]
  %.0.ph = phi i8 [ 1, %21 ], [ 0, %19 ]
  store i32 %.sink, ptr %1, align 4, !tbaa !26
  br label %28

28:                                               ; preds = %.sink.split, %13, %9
  %.0 = phi i8 [ 0, %9 ], [ 1, %13 ], [ %.0.ph, %.sink.split ]
  ret i8 %.0
}